target datalayout = "e-m:e-p270:32:32-p271:32:32-p272:64:64-i64:64-i128:128-f80:128-n8:16:32:64-S128"
target triple = "x86_64-pc-linux-gnu"

%struct.zend_type = type { ptr, i32 }
%struct._zend_internal_function = type { i8, [3 x i8], i32, ptr, ptr, ptr, i32, i32, ptr, ptr, ptr, ptr, i32, ptr, ptr, ptr, ptr, [6 x ptr] }
%struct._zend_internal_arg_info = type { ptr, %struct.zend_type, ptr }

; Function Attrs: nounwind uwtable
define hidden void @zend_free_internal_arg_info(ptr noundef %0) #0 {
  %2 = alloca ptr, align 8
  %3 = alloca i32, align 4
  %4 = alloca i32, align 4
  %5 = alloca ptr, align 8
  store ptr %0, ptr %2, align 8, !tbaa !74
  %6 = load ptr, ptr %2, align 8, !tbaa !74
  %7 = getelementptr inbounds nuw %struct._zend_internal_function, ptr %6, i32 0, i32 2
  %8 = load i32, ptr %7, align 4, !tbaa !76
  %9 = and i32 %8, 8448
  %10 = icmp ne i32 %9, 0
  br i1 %10, label %11, label %53

11:                                               ; preds = %1
  %12 = load ptr, ptr %2, align 8, !tbaa !74
  %13 = getelementptr inbounds nuw %struct._zend_internal_function, ptr %12, i32 0, i32 8
  %14 = load ptr, ptr %13, align 8, !tbaa !80
  %15 = icmp ne ptr %14, null
  br i1 %15, label %16, label %53

16:                                               ; preds = %11
  call void @llvm.lifetime.start.p0(i64 4, ptr %3) #14
  call void @llvm.lifetime.start.p0(i64 4, ptr %4) #14
  %17 = load ptr, ptr %2, align 8, !tbaa !74
  %18 = getelementptr inbounds nuw %struct._zend_internal_function, ptr %17, i32 0, i32 6
  %19 = load i32, ptr %18, align 8, !tbaa !81
  %20 = add i32 %19, 1
  store i32 %20, ptr %4, align 4, !tbaa !10
  call void @llvm.lifetime.start.p0(i64 8, ptr %5) #14
  %21 = load ptr, ptr %2, align 8, !tbaa !74
  %22 = getelementptr inbounds nuw %struct._zend_internal_function, ptr %21, i32 0, i32 8
  %23 = load ptr, ptr %22, align 8, !tbaa !80
  %24 = getelementptr inbounds %struct._zend_internal_arg_info, ptr %23, i64 -1
  store ptr %24, ptr %5, align 8, !tbaa !82
  %25 = load ptr, ptr %2, align 8, !tbaa !74
  %26 = getelementptr inbounds nuw %struct._zend_internal_function, ptr %25, i32 0, i32 2
  %27 = load i32, ptr %26, align 4, !tbaa !76
  %28 = and i32 %27, 16384
  %29 = icmp ne i32 %28, 0
  br i1 %29, label %30, label %33

30:                                               ; preds = %16
  %31 = load i32, ptr %4, align 4, !tbaa !10
  %32 = add i32 %31, 1
  store i32 %32, ptr %4, align 4, !tbaa !10
  br label %33

33:                                               ; preds = %30, %16
  store i32 0, ptr %3, align 4, !tbaa !10
  br label %34

34:                                               ; preds = %48, %33
  %35 = load i32, ptr %3, align 4, !tbaa !10
  %36 = load i32, ptr %4, align 4, !tbaa !10
  %37 = icmp ult i32 %35, %36
  br i1 %37, label %38, label %51

38:                                               ; preds = %34
  %39 = load ptr, ptr %5, align 8, !tbaa !82
  %40 = load i32, ptr %3, align 4, !tbaa !10
  %41 = zext i32 %40 to i64
  %42 = getelementptr inbounds nuw %struct._zend_internal_arg_info, ptr %39, i64 %41
  %43 = getelementptr inbounds nuw %struct._zend_internal_arg_info, ptr %42, i32 0, i32 1
  %44 = getelementptr inbounds nuw { ptr, i32 }, ptr %43, i32 0, i32 0
  %45 = load ptr, ptr %44, align 8
  %46 = getelementptr inbounds nuw { ptr, i32 }, ptr %43, i32 0, i32 1
  %47 = load i32, ptr %46, align 8
  call void @zend_type_release(ptr %45, i32 %47, i1 noundef zeroext true)
  br label %48

48:                                               ; preds = %38
  %49 = load i32, ptr %3, align 4, !tbaa !10
  %50 = add i32 %49, 1
  store i32 %50, ptr %3, align 4, !tbaa !10
  br label %34

51:                                               ; preds = %34
  %52 = load ptr, ptr %5, align 8, !tbaa !82
  call void @free(ptr noundef %52) #14
  call void @llvm.lifetime.end.p0(i64 8, ptr %5) #14
  call void @llvm.lifetime.end.p0(i64 4, ptr %4) #14
  call void @llvm.lifetime.end.p0(i64 4, ptr %3) #14
  br label %53

53:                                               ; preds = %51, %11, %1
  ret void
}