; Function Attrs: nounwind uwtable
define hidden void @zend_free_internal_arg_info(ptr noundef readonly captures(none) %0) local_unnamed_addr #0 {
  %2 = getelementptr inbounds nuw i8, ptr %0, i64 4
  %3 = load i32, ptr %2, align 4, !tbaa !42
  %4 = and i32 %3, 8448
  %.not = icmp eq i32 %4, 0
  br i1 %.not, label %17, label %5

5:                                                ; preds = %1
  %6 = getelementptr inbounds nuw i8, ptr %0, i64 40
  %7 = load ptr, ptr %6, align 8, !tbaa !46
  %.not13 = icmp eq ptr %7, null
  br i1 %.not13, label %17, label %8

8:                                                ; preds = %5
  %9 = getelementptr inbounds nuw i8, ptr %0, i64 32
  %10 = load i32, ptr %9, align 8, !tbaa !47
  %11 = getelementptr inbounds i8, ptr %7, i64 -32
  %12 = and i32 %3, 16384
  %.not14 = icmp eq i32 %12, 0
  %spec.select.v = select i1 %.not14, i32 1, i32 2
  %spec.select = add i32 %10, %spec.select.v
  %.not16 = icmp eq i32 %spec.select, 0
  br i1 %.not16, label %._crit_edge, label %.lr.ph.preheader

.lr.ph.preheader:                                 ; preds = %8
  %wide.trip.count = zext i32 %spec.select to i64
  br label %.lr.ph

.lr.ph:                                           ; preds = %.lr.ph.preheader, %.lr.ph
  %indvars.iv = phi i64 [ 0, %.lr.ph.preheader ], [ %indvars.iv.next, %.lr.ph ]
  %.idx = shl nuw nsw i64 %indvars.iv, 5
  %.offs = or disjoint i64 %.idx, 8
  %13 = getelementptr inbounds nuw i8, ptr %11, i64 %.offs
  %14 = load ptr, ptr %13, align 8
  %15 = getelementptr inbounds nuw i8, ptr %13, i64 8
  %16 = load i32, ptr %15, align 8
  tail call void @zend_type_release(ptr %14, i32 %16, i1 noundef zeroext true)
  %indvars.iv.next = add nuw nsw i64 %indvars.iv, 1
  %exitcond.not = icmp eq i64 %indvars.iv.next, %wide.trip.count
  br i1 %exitcond.not, label %._crit_edge, label %.lr.ph

._crit_edge:                                      ; preds = %.lr.ph, %8
  tail call void @free(ptr noundef nonnull %11) #14
  br label %17

17:                                               ; preds = %._crit_edge, %5, %1
  ret void
}